; Function Attrs: mustprogress uwtable
define hidden range(i32 0, 2) i32 @hb_map_set_user_data(ptr noundef %0, ptr noundef %1, ptr noundef %2, ptr noundef %3, i32 noundef %4) local_unnamed_addr #3 {
  %.not.i = icmp eq ptr %0, null
  br i1 %.not.i, label %_ZL23hb_object_set_user_dataI8hb_map_tEbPT_P18hb_user_data_key_tPvPFvS5_Ei.exit, label %6

6:                                                ; preds = %5
  %7 = load atomic i32, ptr %0 monotonic, align 4
  %.not.i.i = icmp eq i32 %7, 0
  br i1 %.not.i.i, label %_ZL23hb_object_set_user_dataI8hb_map_tEbPT_P18hb_user_data_key_tPvPFvS5_Ei.exit, label %.preheader.i

.preheader.i:                                     ; preds = %6
  %8 = getelementptr inbounds i8, ptr %0, i64 8
  %9 = load atomic i64, ptr %8 acquire, align 8
  %.not1923.i = icmp eq i64 %9, 0
  br i1 %.not1923.i, label %.lr.ph.i, label %.split.loop.exit21.i

.lr.ph.i:                                         ; preds = %.preheader.i, %17
  %10 = tail call noalias dereferenceable_or_null(56) ptr @calloc(i64 noundef 56, i64 noundef 1) #22
  %.not20.i = icmp eq ptr %10, null
  br i1 %.not20.i, label %_ZL23hb_object_set_user_dataI8hb_map_tEbPT_P18hb_user_data_key_tPvPFvS5_Ei.exit, label %11

11:                                               ; preds = %.lr.ph.i
  %12 = tail call i32 @pthread_mutex_init(ptr noundef nonnull %10, ptr noundef null) #23
  %13 = getelementptr inbounds i8, ptr %10, i64 40
  tail call void @llvm.memset.p0.i64(ptr noundef nonnull align 8 dereferenceable(16) %13, i8 0, i64 16, i1 false)
  %14 = ptrtoint ptr %10 to i64
  %15 = cmpxchg weak ptr %8, i64 0, i64 %14 acq_rel monotonic, align 8
  %16 = extractvalue { i64, i1 } %15, 1
  br i1 %16, label %.split.loop.exit.i, label %17

17:                                               ; preds = %11
  tail call void @_ZN17hb_lockable_set_tIN20hb_user_data_array_t19hb_user_data_item_tE10hb_mutex_tE4finiERS2_(ptr noundef nonnull align 8 dereferenceable(16) %13, ptr noundef nonnull align 8 dereferenceable(40) %10)
  %18 = tail call i32 @pthread_mutex_destroy(ptr noundef nonnull %10) #23
  tail call void @free(ptr noundef nonnull %10) #23
  %19 = load atomic i64, ptr %8 acquire, align 8
  %.not19.i = icmp eq i64 %19, 0
  br i1 %.not19.i, label %.lr.ph.i, label %.split.loop.exit21.i

.split.loop.exit21.i:                             ; preds = %17, %.preheader.i
  %.lcssa.i = phi i64 [ %9, %.preheader.i ], [ %19, %17 ]
  %20 = inttoptr i64 %.lcssa.i to ptr
  br label %.split.loop.exit.i

.split.loop.exit.i:                               ; preds = %11, %.split.loop.exit21.i
  %.0.i = phi ptr [ %20, %.split.loop.exit21.i ], [ %10, %11 ]
  %21 = tail call noundef zeroext i1 @_ZN20hb_user_data_array_t3setEP18hb_user_data_key_tPvPFvS2_Ei(ptr noundef nonnull align 8 dereferenceable(56) %.0.i, ptr noundef %1, ptr noundef %2, ptr noundef %3, i32 noundef %4)
  %22 = zext i1 %21 to i32
  br label %_ZL23hb_object_set_user_dataI8hb_map_tEbPT_P18hb_user_data_key_tPvPFvS5_Ei.exit

_ZL23hb_object_set_user_dataI8hb_map_tEbPT_P18hb_user_data_key_tPvPFvS5_Ei.exit: ; preds = %.lr.ph.i, %5, %6, %.split.loop.exit.i
  %.015.i = phi i32 [ %22, %.split.loop.exit.i ], [ 0, %6 ], [ 0, %5 ], [ 0, %.lr.ph.i ]
  ret i32 %.015.i
}